; Function Attrs: mustprogress uwtable
define void @_ZN32pxrInternal_v0_24__pxrReserved__8HioImage14OpenForWritingERKNSt7__cxx1112basic_stringIcSt11char_traitsIcESaIcEEE(ptr dead_on_unwind noalias nocapture writable writeonly sret(%"class.std::shared_ptr") align 8 %0, ptr noundef nonnull align 8 dereferenceable(32) %1) local_unnamed_addr #0 align 2 personality ptr @__gxx_personality_v0 {
  %3 = alloca %"class.std::shared_ptr", align 8
  %4 = tail call noundef nonnull align 8 dereferenceable(8) ptr @_ZN32pxrInternal_v0_24__pxrReserved__16HioImageRegistry11GetInstanceEv()
  call void @_ZN32pxrInternal_v0_24__pxrReserved__16HioImageRegistry15_ConstructImageERKNSt7__cxx1112basic_stringIcSt11char_traitsIcESaIcEEE(ptr dead_on_unwind nonnull writable sret(%"class.std::shared_ptr") align 8 %3, ptr noundef nonnull align 8 dereferenceable(8) %4, ptr noundef nonnull align 8 dereferenceable(32) %1)
  %5 = load ptr, ptr %3, align 8
  %.not = icmp eq ptr %5, null
  br i1 %.not, label %18, label %6

6:                                                ; preds = %2
  %7 = load ptr, ptr %5, align 8
  %8 = getelementptr inbounds i8, ptr %7, i64 120
  %9 = load ptr, ptr %8, align 8
  %10 = invoke noundef zeroext i1 %9(ptr noundef nonnull align 8 dereferenceable(8) %5, ptr noundef nonnull align 8 dereferenceable(32) %1)
          to label %11 unwind label %12

11:                                               ; preds = %6
  br i1 %10, label %.thread, label %18

12:                                               ; preds = %6
  %13 = landingpad { ptr, i32 }
          cleanup
  call void @_ZNSt10shared_ptrIN32pxrInternal_v0_24__pxrReserved__8HioImageEED2Ev(ptr noundef nonnull align 8 dereferenceable(16) %3) #12
  resume { ptr, i32 } %13

.thread:                                          ; preds = %11
  %14 = load ptr, ptr %3, align 8
  store ptr %14, ptr %0, align 8
  %15 = getelementptr inbounds nuw i8, ptr %0, i64 8
  %16 = getelementptr inbounds nuw i8, ptr %3, i64 8
  %17 = load ptr, ptr %16, align 8
  store ptr %17, ptr %15, align 8
  br label %_ZNSt10shared_ptrIN32pxrInternal_v0_24__pxrReserved__8HioImageEED2Ev.exit

18:                                               ; preds = %2, %11
  call void @llvm.memset.p0.i64(ptr noundef nonnull align 8 dereferenceable(16) %0, i8 0, i64 16, i1 false)
  %.phi.trans.insert = getelementptr inbounds nuw i8, ptr %3, i64 8
  %.pre = load ptr, ptr %.phi.trans.insert, align 8
  %.not.i.i.i = icmp eq ptr %.pre, null
  br i1 %.not.i.i.i, label %_ZNSt10shared_ptrIN32pxrInternal_v0_24__pxrReserved__8HioImageEED2Ev.exit, label %19

19:                                               ; preds = %18
  %20 = getelementptr inbounds nuw i8, ptr %.pre, i64 8
  %21 = load atomic i64, ptr %20 acquire, align 8
  %22 = icmp eq i64 %21, 4294967297
  %23 = trunc i64 %21 to i32
  br i1 %22, label %24, label %29

24:                                               ; preds = %19
  store i32 0, ptr %20, align 8
  %25 = getelementptr inbounds nuw i8, ptr %.pre, i64 12
  store i32 0, ptr %25, align 4
  %26 = load ptr, ptr %.pre, align 8
  %27 = getelementptr inbounds i8, ptr %26, i64 16
  %28 = load ptr, ptr %27, align 8
  call void %28(ptr noundef nonnull align 8 dereferenceable(16) %.pre) #12
  br label %_ZNSt16_Sp_counted_baseILN9__gnu_cxx12_Lock_policyE2EE24_M_release_last_use_coldEv.exit.sink.split.i.i.i.i

29:                                               ; preds = %19
  %30 = load i8, ptr @__libc_single_threaded, align 1
  %.not.i.i.i.i = icmp eq i8 %30, 0
  br i1 %.not.i.i.i.i, label %33, label %31

31:                                               ; preds = %29
  %32 = add nsw i32 %23, -1
  store i32 %32, ptr %20, align 4
  br label %35

33:                                               ; preds = %29
  %34 = atomicrmw volatile add ptr %20, i32 -1 acq_rel, align 4
  br label %35

35:                                               ; preds = %33, %31
  %.0.i.i.i.i = phi i32 [ %23, %31 ], [ %34, %33 ]
  %36 = icmp eq i32 %.0.i.i.i.i, 1
  br i1 %36, label %37, label %_ZNSt10shared_ptrIN32pxrInternal_v0_24__pxrReserved__8HioImageEED2Ev.exit

37:                                               ; preds = %35
  %38 = load ptr, ptr %.pre, align 8
  %39 = getelementptr inbounds i8, ptr %38, i64 16
  %40 = load ptr, ptr %39, align 8
  call void %40(ptr noundef nonnull align 8 dereferenceable(16) %.pre) #12
  %41 = getelementptr inbounds nuw i8, ptr %.pre, i64 12
  %42 = load i8, ptr @__libc_single_threaded, align 1
  %.not.i.i.i.i.i.i = icmp eq i8 %42, 0
  br i1 %.not.i.i.i.i.i.i, label %46, label %43

43:                                               ; preds = %37
  %44 = load i32, ptr %41, align 4
  %45 = add nsw i32 %44, -1
  store i32 %45, ptr %41, align 4
  br label %48

46:                                               ; preds = %37
  %47 = atomicrmw volatile add ptr %41, i32 -1 acq_rel, align 4
  br label %48

48:                                               ; preds = %46, %43
  %.0.i.i.i.i.i.i = phi i32 [ %44, %43 ], [ %47, %46 ]
  %49 = icmp eq i32 %.0.i.i.i.i.i.i, 1
  br i1 %49, label %_ZNSt16_Sp_counted_baseILN9__gnu_cxx12_Lock_policyE2EE24_M_release_last_use_coldEv.exit.sink.split.i.i.i.i, label %_ZNSt10shared_ptrIN32pxrInternal_v0_24__pxrReserved__8HioImageEED2Ev.exit

_ZNSt16_Sp_counted_baseILN9__gnu_cxx12_Lock_policyE2EE24_M_release_last_use_coldEv.exit.sink.split.i.i.i.i: ; preds = %48, %24
  %50 = load ptr, ptr %.pre, align 8
  %51 = getelementptr inbounds i8, ptr %50, i64 24
  %52 = load ptr, ptr %51, align 8
  call void %52(ptr noundef nonnull align 8 dereferenceable(16) %.pre) #12
  br label %_ZNSt10shared_ptrIN32pxrInternal_v0_24__pxrReserved__8HioImageEED2Ev.exit

_ZNSt10shared_ptrIN32pxrInternal_v0_24__pxrReserved__8HioImageEED2Ev.exit: ; preds = %.thread, %18, %35, %48, %_ZNSt16_Sp_counted_baseILN9__gnu_cxx12_Lock_policyE2EE24_M_release_last_use_coldEv.exit.sink.split.i.i.i.i
  ret void
}